target datalayout = "e-m:e-p270:32:32-p271:32:32-p272:64:64-i64:64-f80:128-n8:16:32:64-S128"
target triple = "x86_64-pc-linux-gnu"

@.str = private unnamed_addr constant [3 x i8] c"%d\00", align 1
@.str.1 = private unnamed_addr constant [5 x i8] c"%s%s\00", align 1
@.str.2 = private unnamed_addr constant [4 x i8] c"%s\0A\00", align 1

; Function Attrs: noinline nounwind uwtable
define dso_local void @minus(i8* %0, i8* %1) #0 {
  %3 = alloca i8*, align 8
  %4 = alloca i8*, align 8
  %5 = alloca i32, align 4
  %6 = alloca i32, align 4
  %7 = alloca i32, align 4
  %8 = alloca i32, align 4
  store i8* %0, i8** %3, align 8
  store i8* %1, i8** %4, align 8
  %9 = load i8*, i8** %3, align 8
  %10 = call i64 @strlen(i8* %9) #4
  %11 = trunc i64 %10 to i32
  store i32 %11, i32* %5, align 4
  %12 = load i8*, i8** %4, align 8
  %13 = call i64 @strlen(i8* %12) #4
  %14 = trunc i64 %13 to i32
  store i32 %14, i32* %6, align 4
  %15 = load i32, i32* %6, align 4
  %16 = sub nsw i32 %15, 1
  store i32 %16, i32* %7, align 4
  br label %17

17:                                               ; preds = %131, %2
  %18 = load i32, i32* %7, align 4
  %19 = icmp sge i32 %18, 0
  br i1 %19, label %20, label %134

20:                                               ; preds = %17
  %21 = load i8*, i8** %3, align 8
  %22 = load i32, i32* %5, align 4
  %23 = load i32, i32* %6, align 4
  %24 = sub nsw i32 %22, %23
  %25 = load i32, i32* %7, align 4
  %26 = add nsw i32 %24, %25
  %27 = sext i32 %26 to i64
  %28 = getelementptr inbounds i8, i8* %21, i64 %27
  %29 = load i8, i8* %28, align 1
  %30 = sext i8 %29 to i32
  %31 = load i8*, i8** %4, align 8
  %32 = load i32, i32* %7, align 4
  %33 = sext i32 %32 to i64
  %34 = getelementptr inbounds i8, i8* %31, i64 %33
  %35 = load i8, i8* %34, align 1
  %36 = sext i8 %35 to i32
  %37 = icmp sge i32 %30, %36
  br i1 %37, label %38, label %66

38:                                               ; preds = %20
  %39 = load i8*, i8** %3, align 8
  %40 = load i32, i32* %5, align 4
  %41 = load i32, i32* %6, align 4
  %42 = sub nsw i32 %40, %41
  %43 = load i32, i32* %7, align 4
  %44 = add nsw i32 %42, %43
  %45 = sext i32 %44 to i64
  %46 = getelementptr inbounds i8, i8* %39, i64 %45
  %47 = load i8, i8* %46, align 1
  %48 = sext i8 %47 to i32
  %49 = load i8*, i8** %4, align 8
  %50 = load i32, i32* %7, align 4
  %51 = sext i32 %50 to i64
  %52 = getelementptr inbounds i8, i8* %49, i64 %51
  %53 = load i8, i8* %52, align 1
  %54 = sext i8 %53 to i32
  %55 = sub nsw i32 %48, %54
  %56 = add nsw i32 %55, 48
  %57 = trunc i32 %56 to i8
  %58 = load i8*, i8** %3, align 8
  %59 = load i32, i32* %5, align 4
  %60 = load i32, i32* %6, align 4
  %61 = sub nsw i32 %59, %60
  %62 = load i32, i32* %7, align 4
  %63 = add nsw i32 %61, %62
  %64 = sext i32 %63 to i64
  %65 = getelementptr inbounds i8, i8* %58, i64 %64
  store i8 %57, i8* %65, align 1
  br label %130

66:                                               ; preds = %20
  %67 = load i32, i32* %5, align 4
  %68 = load i32, i32* %6, align 4
  %69 = sub nsw i32 %67, %68
  %70 = load i32, i32* %7, align 4
  %71 = add nsw i32 %69, %70
  %72 = sub nsw i32 %71, 1
  store i32 %72, i32* %8, align 4
  br label %73

73:                                               ; preds = %99, %66
  %74 = load i32, i32* %8, align 4
  %75 = icmp sge i32 %74, 0
  br i1 %75, label %76, label %102

76:                                               ; preds = %73
  %77 = load i8*, i8** %3, align 8
  %78 = load i32, i32* %8, align 4
  %79 = sext i32 %78 to i64
  %80 = getelementptr inbounds i8, i8* %77, i64 %79
  %81 = load i8, i8* %80, align 1
  %82 = sext i8 %81 to i32
  %83 = icmp eq i32 %82, 48
  br i1 %83, label %84, label %89

84:                                               ; preds = %76
  %85 = load i8*, i8** %3, align 8
  %86 = load i32, i32* %8, align 4
  %87 = sext i32 %86 to i64
  %88 = getelementptr inbounds i8, i8* %85, i64 %87
  store i8 57, i8* %88, align 1
  br label %98

89:                                               ; preds = %76
  %90 = load i8*, i8** %3, align 8
  %91 = load i32, i32* %8, align 4
  %92 = sext i32 %91 to i64
  %93 = getelementptr inbounds i8, i8* %90, i64 %92
  %94 = load i8, i8* %93, align 1
  %95 = sext i8 %94 to i32
  %96 = sub nsw i32 %95, 1
  %97 = trunc i32 %96 to i8
  store i8 %97, i8* %93, align 1
  br label %102

98:                                               ; preds = %84
  br label %99

99:                                               ; preds = %98
  %100 = load i32, i32* %8, align 4
  %101 = add nsw i32 %100, -1
  store i32 %101, i32* %8, align 4
  br label %73

102:                                              ; preds = %89, %73
  %103 = load i8*, i8** %3, align 8
  %104 = load i32, i32* %5, align 4
  %105 = load i32, i32* %6, align 4
  %106 = sub nsw i32 %104, %105
  %107 = load i32, i32* %7, align 4
  %108 = add nsw i32 %106, %107
  %109 = sext i32 %108 to i64
  %110 = getelementptr inbounds i8, i8* %103, i64 %109
  %111 = load i8, i8* %110, align 1
  %112 = sext i8 %111 to i32
  %113 = load i8*, i8** %4, align 8
  %114 = load i32, i32* %7, align 4
  %115 = sext i32 %114 to i64
  %116 = getelementptr inbounds i8, i8* %113, i64 %115
  %117 = load i8, i8* %116, align 1
  %118 = sext i8 %117 to i32
  %119 = sub nsw i32 %112, %118
  %120 = add nsw i32 %119, 58
  %121 = trunc i32 %120 to i8
  %122 = load i8*, i8** %3, align 8
  %123 = load i32, i32* %5, align 4
  %124 = load i32, i32* %6, align 4
  %125 = sub nsw i32 %123, %124
  %126 = load i32, i32* %7, align 4
  %127 = add nsw i32 %125, %126
  %128 = sext i32 %127 to i64
  %129 = getelementptr inbounds i8, i8* %122, i64 %128
  store i8 %121, i8* %129, align 1
  br label %130

130:                                              ; preds = %102, %38
  br label %131

131:                                              ; preds = %130
  %132 = load i32, i32* %7, align 4
  %133 = add nsw i32 %132, -1
  store i32 %133, i32* %7, align 4
  br label %17

134:                                              ; preds = %17
  store i32 0, i32* %7, align 4
  br label %135

135:                                              ; preds = %149, %134
  %136 = load i32, i32* %7, align 4
  %137 = load i32, i32* %5, align 4
  %138 = icmp slt i32 %136, %137
  br i1 %138, label %139, label %152

139:                                              ; preds = %135
  %140 = load i8*, i8** %3, align 8
  %141 = load i32, i32* %7, align 4
  %142 = sext i32 %141 to i64
  %143 = getelementptr inbounds i8, i8* %140, i64 %142
  %144 = load i8, i8* %143, align 1
  %145 = sext i8 %144 to i32
  %146 = icmp ne i32 %145, 48
  br i1 %146, label %147, label %148

147:                                              ; preds = %139
  br label %152

148:                                              ; preds = %139
  br label %149

149:                                              ; preds = %148
  %150 = load i32, i32* %7, align 4
  %151 = add nsw i32 %150, 1
  store i32 %151, i32* %7, align 4
  br label %135

152:                                              ; preds = %147, %135
  store i32 0, i32* %8, align 4
  br label %153

153:                                              ; preds = %171, %152
  %154 = load i32, i32* %8, align 4
  %155 = load i32, i32* %5, align 4
  %156 = load i32, i32* %7, align 4
  %157 = sub nsw i32 %155, %156
  %158 = icmp slt i32 %154, %157
  br i1 %158, label %159, label %174

159:                                              ; preds = %153
  %160 = load i8*, i8** %3, align 8
  %161 = load i32, i32* %8, align 4
  %162 = load i32, i32* %7, align 4
  %163 = add nsw i32 %161, %162
  %164 = sext i32 %163 to i64
  %165 = getelementptr inbounds i8, i8* %160, i64 %164
  %166 = load i8, i8* %165, align 1
  %167 = load i8*, i8** %3, align 8
  %168 = load i32, i32* %8, align 4
  %169 = sext i32 %168 to i64
  %170 = getelementptr inbounds i8, i8* %167, i64 %169
  store i8 %166, i8* %170, align 1
  br label %171

171:                                              ; preds = %159
  %172 = load i32, i32* %8, align 4
  %173 = add nsw i32 %172, 1
  store i32 %173, i32* %8, align 4
  br label %153

174:                                              ; preds = %153
  ret void
}

; Function Attrs: noinline nounwind uwtable
define dso_local void @main() #0 {
  %1 = alloca i32, align 4
  %2 = alloca i32, align 4
  %3 = alloca [110 x i8], align 16
  %4 = alloca [110 x i8], align 16
  %5 = alloca [100 x [110 x i8]], align 16
  %6 = call i32 (i8*, ...) @__isoc99_scanf(i8* getelementptr inbounds ([3 x i8], [3 x i8]* @.str, i64 0, i64 0), i32* %1)
  store i32 0, i32* %2, align 4
  br label %7

7:                                                ; preds = %23, %0
  %8 = load i32, i32* %2, align 4
  %9 = load i32, i32* %1, align 4
  %10 = icmp slt i32 %8, %9
  br i1 %10, label %11, label %26

11:                                               ; preds = %7
  %12 = getelementptr inbounds [110 x i8], [110 x i8]* %3, i64 0, i64 0
  %13 = getelementptr inbounds [110 x i8], [110 x i8]* %4, i64 0, i64 0
  %14 = call i32 (i8*, ...) @__isoc99_scanf(i8* getelementptr inbounds ([5 x i8], [5 x i8]* @.str.1, i64 0, i64 0), i8* %12, i8* %13)
  %15 = getelementptr inbounds [110 x i8], [110 x i8]* %3, i64 0, i64 0
  %16 = getelementptr inbounds [110 x i8], [110 x i8]* %4, i64 0, i64 0
  call void @minus(i8* %15, i8* %16)
  %17 = load i32, i32* %2, align 4
  %18 = sext i32 %17 to i64
  %19 = getelementptr inbounds [100 x [110 x i8]], [100 x [110 x i8]]* %5, i64 0, i64 %18
  %20 = getelementptr inbounds [110 x i8], [110 x i8]* %19, i64 0, i64 0
  %21 = getelementptr inbounds [110 x i8], [110 x i8]* %3, i64 0, i64 0
  %22 = call i8* @strcpy(i8* %20, i8* %21) #5
  br label %23

23:                                               ; preds = %11
  %24 = load i32, i32* %2, align 4
  %25 = add nsw i32 %24, 1
  store i32 %25, i32* %2, align 4
  br label %7

26:                                               ; preds = %7
  store i32 0, i32* %2, align 4
  br label %27

27:                                               ; preds = %37, %26
  %28 = load i32, i32* %2, align 4
  %29 = load i32, i32* %1, align 4
  %30 = icmp slt i32 %28, %29
  br i1 %30, label %31, label %40

31:                                               ; preds = %27
  %32 = load i32, i32* %2, align 4
  %33 = sext i32 %32 to i64
  %34 = getelementptr inbounds [100 x [110 x i8]], [100 x [110 x i8]]* %5, i64 0, i64 %33
  %35 = getelementptr inbounds [110 x i8], [110 x i8]* %34, i64 0, i64 0
  %36 = call i32 (i8*, ...) @printf(i8* getelementptr inbounds ([4 x i8], [4 x i8]* @.str.2, i64 0, i64 0), i8* %35)
  br label %37

37:                                               ; preds = %31
  %38 = load i32, i32* %2, align 4
  %39 = add nsw i32 %38, 1
  store i32 %39, i32* %2, align 4
  br label %27

40:                                               ; preds = %27
  ret void
}